target datalayout = "e-m:e-p270:32:32-p271:32:32-p272:64:64-i64:64-i128:128-f80:128-n8:16:32:64-S128"
target triple = "x86_64-pc-linux-gnu"

%"struct.cv::ximgproc::ComputeGradientBody" = type <{ %"class.cv::ParallelLoopBody", %"class.cv::Mat_", %"class.cv::Mat_.0", %"class.cv::Mat_", i32, i32, i8, [7 x i8], ptr, i8, [7 x i8] }>
%"class.cv::ParallelLoopBody" = type { ptr }
%"class.cv::Mat_.0" = type { %"class.cv::Mat" }
%"class.cv::Mat" = type { i32, i32, i32, i32, ptr, ptr, ptr, ptr, ptr, ptr, %"struct.cv::MatSize", %"struct.cv::MatStep" }
%"struct.cv::MatSize" = type { ptr }
%"struct.cv::MatStep" = type { ptr, [2 x i64] }
%"class.cv::Mat_" = type { %"class.cv::Mat" }
%"class.cv::Range" = type { i32, i32 }
%"struct.cv::ximgproc::EdgeDrawing::Params" = type { i8, i32, i32, i32, i32, i32, float, i8, i8, i32, double, double, double }
%"class.cv::ximgproc::EdgeDrawing" = type { %"class.cv::Algorithm", %"struct.cv::ximgproc::EdgeDrawing::Params" }
%"class.cv::Algorithm" = type { ptr }
%"class.cv::ximgproc::EdgeDrawingImpl" = type { %"class.cv::ximgproc::EdgeDrawing", i32, i32, ptr, %"class.std::vector", %"class.std::vector.12", %"class.cv::Mat", ptr, ptr, i32, %"class.cv::Mat", double, ptr, ptr, i32, i32, %"class.std::vector.17", %"class.std::vector.17", %"class.cv::Mat", %"class.cv::Mat", %"class.cv::Mat", ptr, ptr, i32, i32, i32, %"class.std::vector.22", i32, i32, double, double, double, double, ptr, i32, i32, %"class.std::vector.27", %"class.std::vector.32", ptr, ptr, ptr, i32, i32, i32, ptr, ptr, ptr, ptr, ptr, ptr, ptr }
%"class.std::vector" = type { %"struct.std::_Vector_base" }
%"struct.std::_Vector_base" = type { %"struct.std::_Vector_base<std::vector<cv::Point_<int>>, std::allocator<std::vector<cv::Point_<int>>>>::_Vector_impl" }
%"struct.std::_Vector_base<std::vector<cv::Point_<int>>, std::allocator<std::vector<cv::Point_<int>>>>::_Vector_impl" = type { %"struct.std::_Vector_base<std::vector<cv::Point_<int>>, std::allocator<std::vector<cv::Point_<int>>>>::_Vector_impl_data" }
%"struct.std::_Vector_base<std::vector<cv::Point_<int>>, std::allocator<std::vector<cv::Point_<int>>>>::_Vector_impl_data" = type { ptr, ptr, ptr }
%"class.std::vector.12" = type { %"struct.std::_Vector_base.13" }
%"struct.std::_Vector_base.13" = type { %"struct.std::_Vector_base<int, std::allocator<int>>::_Vector_impl" }
%"struct.std::_Vector_base<int, std::allocator<int>>::_Vector_impl" = type { %"struct.std::_Vector_base<int, std::allocator<int>>::_Vector_impl_data" }
%"struct.std::_Vector_base<int, std::allocator<int>>::_Vector_impl_data" = type { ptr, ptr, ptr }
%"class.std::vector.17" = type { %"struct.std::_Vector_base.18" }
%"struct.std::_Vector_base.18" = type { %"struct.std::_Vector_base<cv::Point_<int>, std::allocator<cv::Point_<int>>>::_Vector_impl" }
%"struct.std::_Vector_base<cv::Point_<int>, std::allocator<cv::Point_<int>>>::_Vector_impl" = type { %"struct.std::_Vector_base<cv::Point_<int>, std::allocator<cv::Point_<int>>>::_Vector_impl_data" }
%"struct.std::_Vector_base<cv::Point_<int>, std::allocator<cv::Point_<int>>>::_Vector_impl_data" = type { ptr, ptr, ptr }
%"class.std::vector.22" = type { %"struct.std::_Vector_base.23" }
%"struct.std::_Vector_base.23" = type { %"struct.std::_Vector_base<EDLineSegment, std::allocator<EDLineSegment>>::_Vector_impl" }
%"struct.std::_Vector_base<EDLineSegment, std::allocator<EDLineSegment>>::_Vector_impl" = type { %"struct.std::_Vector_base<EDLineSegment, std::allocator<EDLineSegment>>::_Vector_impl_data" }
%"struct.std::_Vector_base<EDLineSegment, std::allocator<EDLineSegment>>::_Vector_impl_data" = type { ptr, ptr, ptr }
%"class.std::vector.27" = type { %"struct.std::_Vector_base.28" }
%"struct.std::_Vector_base.28" = type { %"struct.std::_Vector_base<mCircle, std::allocator<mCircle>>::_Vector_impl" }
%"struct.std::_Vector_base<mCircle, std::allocator<mCircle>>::_Vector_impl" = type { %"struct.std::_Vector_base<mCircle, std::allocator<mCircle>>::_Vector_impl_data" }
%"struct.std::_Vector_base<mCircle, std::allocator<mCircle>>::_Vector_impl_data" = type { ptr, ptr, ptr }
%"class.std::vector.32" = type { %"struct.std::_Vector_base.33" }
%"struct.std::_Vector_base.33" = type { %"struct.std::_Vector_base<mEllipse, std::allocator<mEllipse>>::_Vector_impl" }
%"struct.std::_Vector_base<mEllipse, std::allocator<mEllipse>>::_Vector_impl" = type { %"struct.std::_Vector_base<mEllipse, std::allocator<mEllipse>>::_Vector_impl_data" }
%"struct.std::_Vector_base<mEllipse, std::allocator<mEllipse>>::_Vector_impl_data" = type { ptr, ptr, ptr }

@_ZTVN2cv16ParallelLoopBodyE = available_externally unnamed_addr constant { [5 x ptr] } { [5 x ptr] [ptr null, ptr @_ZTIN2cv16ParallelLoopBodyE, ptr @_ZN2cv16ParallelLoopBodyD1Ev, ptr @_ZN2cv16ParallelLoopBodyD0Ev, ptr @__cxa_pure_virtual] }, align 8

; Function Attrs: inlinehint mustprogress nounwind uwtable
define linkonce_odr hidden void @_ZN2cv4Mat_ItEC2Ev(ptr noundef nonnull align 8 dereferenceable(96) %0) unnamed_addr #10 comdat align 2 {
  %2 = alloca ptr, align 8
  store ptr %0, ptr %2, align 8, !tbaa !85
  %3 = load ptr, ptr %2, align 8
  call void @_ZN2cv3MatC2Ev(ptr noundef nonnull align 8 dereferenceable(96) %3) #3
  %4 = getelementptr inbounds nuw %"class.cv::Mat", ptr %3, i32 0, i32 0
  %5 = load i32, ptr %4, align 8, !tbaa !329
  %6 = and i32 %5, -4096
  %7 = add nsw i32 %6, 2
  %8 = getelementptr inbounds nuw %"class.cv::Mat", ptr %3, i32 0, i32 0
  store i32 %7, ptr %8, align 8, !tbaa !329
  ret void
}

; Function Attrs: inlinehint mustprogress nounwind uwtable
define linkonce_odr hidden void @_ZN2cv4Mat_IhEC2Ev(ptr noundef nonnull align 8 dereferenceable(96) %0) unnamed_addr #10 comdat align 2 {
  %2 = alloca ptr, align 8
  store ptr %0, ptr %2, align 8, !tbaa !79
  %3 = load ptr, ptr %2, align 8
  call void @_ZN2cv3MatC2Ev(ptr noundef nonnull align 8 dereferenceable(96) %3) #3
  %4 = getelementptr inbounds nuw %"class.cv::Mat", ptr %3, i32 0, i32 0
  %5 = load i32, ptr %4, align 8, !tbaa !329
  %6 = and i32 %5, -4096
  %7 = add nsw i32 %6, 0
  %8 = getelementptr inbounds nuw %"class.cv::Mat", ptr %3, i32 0, i32 0
  store i32 %7, ptr %8, align 8, !tbaa !329
  ret void
}

; Function Attrs: inlinehint mustprogress nounwind uwtable
define linkonce_odr hidden void @_ZN2cv16ParallelLoopBodyC2Ev(ptr noundef nonnull align 8 dereferenceable(8) %0) unnamed_addr #10 comdat align 2 {
  %2 = alloca ptr, align 8
  store ptr %0, ptr %2, align 8, !tbaa !696
  %3 = load ptr, ptr %2, align 8
  store ptr getelementptr inbounds inrange(-16, 24) ({ [5 x ptr] }, ptr @_ZTVN2cv16ParallelLoopBodyE, i32 0, i32 0, i32 2), ptr %3, align 8, !tbaa !119
  ret void
}

; Function Attrs: inlinehint mustprogress nounwind uwtable
define linkonce_odr hidden void @_ZN2cv5RangeC2Eii(ptr noundef nonnull align 4 dereferenceable(8) %0, i32 noundef %1, i32 noundef %2) unnamed_addr #10 comdat align 2 {
  %4 = alloca ptr, align 8
  %5 = alloca i32, align 4
  %6 = alloca i32, align 4
  store ptr %0, ptr %4, align 8, !tbaa !48
  store i32 %1, ptr %5, align 4, !tbaa !8
  store i32 %2, ptr %6, align 4, !tbaa !8
  %7 = load ptr, ptr %4, align 8
  %8 = getelementptr inbounds nuw %"class.cv::Range", ptr %7, i32 0, i32 0
  %9 = load i32, ptr %5, align 4, !tbaa !8
  store i32 %9, ptr %8, align 4, !tbaa !57
  %10 = getelementptr inbounds nuw %"class.cv::Range", ptr %7, i32 0, i32 1
  %11 = load i32, ptr %6, align 4, !tbaa !8
  store i32 %11, ptr %10, align 4, !tbaa !59
  ret void
}

; Function Attrs: inlinehint mustprogress nounwind uwtable
define linkonce_odr hidden void @_ZN2cv8ximgproc19ComputeGradientBodyC2Ev(ptr noundef nonnull align 8 dereferenceable(321) %0) unnamed_addr #10 comdat align 2 {
  %2 = alloca ptr, align 8
  store ptr %0, ptr %2, align 8, !tbaa !46
  %3 = load ptr, ptr %2, align 8
  call void @_ZN2cv16ParallelLoopBodyC2Ev(ptr noundef nonnull align 8 dereferenceable(8) %3) #3
  store ptr getelementptr inbounds inrange(-16, 24) ({ [5 x ptr] }, ptr @_ZTVN2cv8ximgproc19ComputeGradientBodyE, i32 0, i32 0, i32 2), ptr %3, align 8, !tbaa !119
  %4 = getelementptr inbounds nuw %"struct.cv::ximgproc::ComputeGradientBody", ptr %3, i32 0, i32 1
  call void @_ZN2cv4Mat_IhEC2Ev(ptr noundef nonnull align 8 dereferenceable(96) %4) #3
  %5 = getelementptr inbounds nuw %"struct.cv::ximgproc::ComputeGradientBody", ptr %3, i32 0, i32 2
  call void @_ZN2cv4Mat_ItEC2Ev(ptr noundef nonnull align 8 dereferenceable(96) %5) #3
  %6 = getelementptr inbounds nuw %"struct.cv::ximgproc::ComputeGradientBody", ptr %3, i32 0, i32 3
  call void @_ZN2cv4Mat_IhEC2Ev(ptr noundef nonnull align 8 dereferenceable(96) %6) #3
  ret void
}

; Function Attrs: mustprogress uwtable
define hidden void @_ZN2cv8ximgproc15EdgeDrawingImpl15ComputeGradientEv(ptr noundef nonnull align 8 dereferenceable(976) %0) #4 align 2 personality ptr @__gxx_personality_v0 {
  %2 = alloca ptr, align 8
  %3 = alloca i32, align 4
  %4 = alloca i32, align 4
  %5 = alloca %"struct.cv::ximgproc::ComputeGradientBody", align 8
  %6 = alloca ptr, align 8
  %7 = alloca i32, align 4
  %8 = alloca %"class.cv::Range", align 4
  store ptr %0, ptr %2, align 8, !tbaa !134
  %9 = load ptr, ptr %2, align 8
  call void @llvm.lifetime.start.p0(i64 4, ptr %3) #3
  store i32 0, ptr %3, align 4, !tbaa !8
  br label %10

10:                                               ; preds = %40, %1
  %11 = load i32, ptr %3, align 4, !tbaa !8
  %12 = getelementptr inbounds nuw %"class.cv::ximgproc::EdgeDrawingImpl", ptr %9, i32 0, i32 1
  %13 = load i32, ptr %12, align 8, !tbaa !213
  %14 = icmp slt i32 %11, %13
  br i1 %14, label %16, label %15

15:                                               ; preds = %10
  call void @llvm.lifetime.end.p0(i64 4, ptr %3) #3
  br label %43

16:                                               ; preds = %10
  %17 = getelementptr inbounds nuw %"class.cv::ximgproc::EdgeDrawingImpl", ptr %9, i32 0, i32 24
  %18 = load i32, ptr %17, align 4, !tbaa !201
  %19 = trunc i32 %18 to i16
  %20 = zext i16 %19 to i32
  %21 = sub nsw i32 %20, 1
  %22 = trunc i32 %21 to i16
  %23 = getelementptr inbounds nuw %"class.cv::ximgproc::EdgeDrawingImpl", ptr %9, i32 0, i32 22
  %24 = load ptr, ptr %23, align 8, !tbaa !218
  %25 = getelementptr inbounds nuw %"class.cv::ximgproc::EdgeDrawingImpl", ptr %9, i32 0, i32 2
  %26 = load i32, ptr %25, align 4, !tbaa !211
  %27 = sub nsw i32 %26, 1
  %28 = getelementptr inbounds nuw %"class.cv::ximgproc::EdgeDrawingImpl", ptr %9, i32 0, i32 1
  %29 = load i32, ptr %28, align 8, !tbaa !213
  %30 = mul nsw i32 %27, %29
  %31 = load i32, ptr %3, align 4, !tbaa !8
  %32 = add nsw i32 %30, %31
  %33 = sext i32 %32 to i64
  %34 = getelementptr inbounds i16, ptr %24, i64 %33
  store i16 %22, ptr %34, align 2, !tbaa !72
  %35 = getelementptr inbounds nuw %"class.cv::ximgproc::EdgeDrawingImpl", ptr %9, i32 0, i32 22
  %36 = load ptr, ptr %35, align 8, !tbaa !218
  %37 = load i32, ptr %3, align 4, !tbaa !8
  %38 = sext i32 %37 to i64
  %39 = getelementptr inbounds i16, ptr %36, i64 %38
  store i16 %22, ptr %39, align 2, !tbaa !72
  br label %40

40:                                               ; preds = %16
  %41 = load i32, ptr %3, align 4, !tbaa !8
  %42 = add nsw i32 %41, 1
  store i32 %42, ptr %3, align 4, !tbaa !8
  br label %10, !llvm.loop !243

43:                                               ; preds = %15
  call void @llvm.lifetime.start.p0(i64 4, ptr %4) #3
  store i32 1, ptr %4, align 4, !tbaa !8
  br label %44

44:                                               ; preds = %76, %43
  %45 = load i32, ptr %4, align 4, !tbaa !8
  %46 = getelementptr inbounds nuw %"class.cv::ximgproc::EdgeDrawingImpl", ptr %9, i32 0, i32 2
  %47 = load i32, ptr %46, align 4, !tbaa !211
  %48 = sub nsw i32 %47, 1
  %49 = icmp slt i32 %45, %48
  br i1 %49, label %51, label %50

50:                                               ; preds = %44
  call void @llvm.lifetime.end.p0(i64 4, ptr %4) #3
  br label %79

51:                                               ; preds = %44
  %52 = getelementptr inbounds nuw %"class.cv::ximgproc::EdgeDrawingImpl", ptr %9, i32 0, i32 24
  %53 = load i32, ptr %52, align 4, !tbaa !201
  %54 = trunc i32 %53 to i16
  %55 = zext i16 %54 to i32
  %56 = sub nsw i32 %55, 1
  %57 = trunc i32 %56 to i16
  %58 = getelementptr inbounds nuw %"class.cv::ximgproc::EdgeDrawingImpl", ptr %9, i32 0, i32 22
  %59 = load ptr, ptr %58, align 8, !tbaa !218
  %60 = load i32, ptr %4, align 4, !tbaa !8
  %61 = add nsw i32 %60, 1
  %62 = getelementptr inbounds nuw %"class.cv::ximgproc::EdgeDrawingImpl", ptr %9, i32 0, i32 1
  %63 = load i32, ptr %62, align 8, !tbaa !213
  %64 = mul nsw i32 %61, %63
  %65 = sub nsw i32 %64, 1
  %66 = sext i32 %65 to i64
  %67 = getelementptr inbounds i16, ptr %59, i64 %66
  store i16 %57, ptr %67, align 2, !tbaa !72
  %68 = getelementptr inbounds nuw %"class.cv::ximgproc::EdgeDrawingImpl", ptr %9, i32 0, i32 22
  %69 = load ptr, ptr %68, align 8, !tbaa !218
  %70 = load i32, ptr %4, align 4, !tbaa !8
  %71 = getelementptr inbounds nuw %"class.cv::ximgproc::EdgeDrawingImpl", ptr %9, i32 0, i32 1
  %72 = load i32, ptr %71, align 8, !tbaa !213
  %73 = mul nsw i32 %70, %72
  %74 = sext i32 %73 to i64
  %75 = getelementptr inbounds i16, ptr %69, i64 %74
  store i16 %57, ptr %75, align 2, !tbaa !72
  br label %76

76:                                               ; preds = %51
  %77 = load i32, ptr %4, align 4, !tbaa !8
  %78 = add nsw i32 %77, 1
  store i32 %78, ptr %4, align 4, !tbaa !8
  br label %44, !llvm.loop !244

79:                                               ; preds = %50
  call void @llvm.lifetime.start.p0(i64 328, ptr %5) #3
  call void @_ZN2cv8ximgproc19ComputeGradientBodyC2Ev(ptr noundef nonnull align 8 dereferenceable(321) %5) #3
  %80 = getelementptr inbounds nuw %"class.cv::ximgproc::EdgeDrawingImpl", ptr %9, i32 0, i32 6
  %81 = getelementptr inbounds nuw %"struct.cv::ximgproc::ComputeGradientBody", ptr %5, i32 0, i32 1
  %82 = invoke noundef nonnull align 8 dereferenceable(96) ptr @_ZN2cv4Mat_IhEaSERKNS_3MatE(ptr noundef nonnull align 8 dereferenceable(96) %81, ptr noundef nonnull align 8 dereferenceable(96) %80)
          to label %83 unwind label %119

83:                                               ; preds = %79
  %84 = getelementptr inbounds nuw %"class.cv::ximgproc::EdgeDrawingImpl", ptr %9, i32 0, i32 19
  %85 = getelementptr inbounds nuw %"struct.cv::ximgproc::ComputeGradientBody", ptr %5, i32 0, i32 2
  %86 = invoke noundef nonnull align 8 dereferenceable(96) ptr @_ZN2cv4Mat_ItEaSERKNS_3MatE(ptr noundef nonnull align 8 dereferenceable(96) %85, ptr noundef nonnull align 8 dereferenceable(96) %84)
          to label %87 unwind label %119

87:                                               ; preds = %83
  %88 = getelementptr inbounds nuw %"class.cv::ximgproc::EdgeDrawingImpl", ptr %9, i32 0, i32 20
  %89 = getelementptr inbounds nuw %"struct.cv::ximgproc::ComputeGradientBody", ptr %5, i32 0, i32 3
  %90 = invoke noundef nonnull align 8 dereferenceable(96) ptr @_ZN2cv4Mat_IhEaSERKNS_3MatE(ptr noundef nonnull align 8 dereferenceable(96) %89, ptr noundef nonnull align 8 dereferenceable(96) %88)
          to label %91 unwind label %119

91:                                               ; preds = %87
  %92 = getelementptr inbounds nuw %"class.cv::ximgproc::EdgeDrawingImpl", ptr %9, i32 0, i32 24
  %93 = load i32, ptr %92, align 4, !tbaa !201
  %94 = getelementptr inbounds nuw %"struct.cv::ximgproc::ComputeGradientBody", ptr %5, i32 0, i32 4
  store i32 %93, ptr %94, align 8, !tbaa !76
  %95 = getelementptr inbounds nuw %"class.cv::ximgproc::EdgeDrawing", ptr %9, i32 0, i32 1
  %96 = getelementptr inbounds nuw %"struct.cv::ximgproc::EdgeDrawing::Params", ptr %95, i32 0, i32 7
  %97 = load i8, ptr %96, align 4, !tbaa !245, !range !70, !noundef !71
  %98 = trunc i8 %97 to i1
  %99 = getelementptr inbounds nuw %"struct.cv::ximgproc::ComputeGradientBody", ptr %5, i32 0, i32 6
  %100 = zext i1 %98 to i8
  store i8 %100, ptr %99, align 8, !tbaa !69
  %101 = getelementptr inbounds nuw %"class.cv::ximgproc::EdgeDrawingImpl", ptr %9, i32 0, i32 23
  %102 = load i32, ptr %101, align 8, !tbaa !205
  %103 = getelementptr inbounds nuw %"struct.cv::ximgproc::ComputeGradientBody", ptr %5, i32 0, i32 5
  store i32 %102, ptr %103, align 4, !tbaa !63
  %104 = getelementptr inbounds nuw %"class.cv::ximgproc::EdgeDrawingImpl", ptr %9, i32 0, i32 13
  %105 = load ptr, ptr %104, align 8, !tbaa !174
  %106 = getelementptr inbounds nuw %"struct.cv::ximgproc::ComputeGradientBody", ptr %5, i32 0, i32 8
  store ptr %105, ptr %106, align 8, !tbaa !75
  %107 = getelementptr inbounds nuw %"class.cv::ximgproc::EdgeDrawing", ptr %9, i32 0, i32 1
  %108 = getelementptr inbounds nuw %"struct.cv::ximgproc::EdgeDrawing::Params", ptr %107, i32 0, i32 0
  %109 = load i8, ptr %108, align 8, !tbaa !223, !range !70, !noundef !71
  %110 = trunc i8 %109 to i1
  %111 = getelementptr inbounds nuw %"struct.cv::ximgproc::ComputeGradientBody", ptr %5, i32 0, i32 9
  %112 = zext i1 %110 to i8
  store i8 %112, ptr %111, align 8, !tbaa !74
  call void @llvm.lifetime.start.p0(i64 8, ptr %8) #3
  %113 = getelementptr inbounds nuw %"class.cv::ximgproc::EdgeDrawingImpl", ptr %9, i32 0, i32 6
  %114 = getelementptr inbounds nuw %"class.cv::Mat", ptr %113, i32 0, i32 2
  %115 = load i32, ptr %114, align 8, !tbaa !246
  %116 = sub nsw i32 %115, 1
  invoke void @_ZN2cv5RangeC2Eii(ptr noundef nonnull align 4 dereferenceable(8) %8, i32 noundef 1, i32 noundef %116)
          to label %117 unwind label %123

117:                                              ; preds = %91
  invoke void @_ZN2cv13parallel_for_ERKNS_5RangeERKNS_16ParallelLoopBodyEd(ptr noundef nonnull align 4 dereferenceable(8) %8, ptr noundef nonnull align 8 dereferenceable(8) %5, double noundef -1.000000e+00)
          to label %118 unwind label %123

118:                                              ; preds = %117
  call void @llvm.lifetime.end.p0(i64 8, ptr %8) #3
  call void @_ZN2cv8ximgproc19ComputeGradientBodyD2Ev(ptr noundef nonnull align 8 dereferenceable(321) %5) #3
  call void @llvm.lifetime.end.p0(i64 328, ptr %5) #3
  ret void

119:                                              ; preds = %87, %83, %79
  %120 = landingpad { ptr, i32 }
          cleanup
  %121 = extractvalue { ptr, i32 } %120, 0
  store ptr %121, ptr %6, align 8
  %122 = extractvalue { ptr, i32 } %120, 1
  store i32 %122, ptr %7, align 4
  br label %127

123:                                              ; preds = %117, %91
  %124 = landingpad { ptr, i32 }
          cleanup
  %125 = extractvalue { ptr, i32 } %124, 0
  store ptr %125, ptr %6, align 8
  %126 = extractvalue { ptr, i32 } %124, 1
  store i32 %126, ptr %7, align 4
  call void @llvm.lifetime.end.p0(i64 8, ptr %8) #3
  br label %127

127:                                              ; preds = %123, %119
  call void @_ZN2cv8ximgproc19ComputeGradientBodyD2Ev(ptr noundef nonnull align 8 dereferenceable(321) %5) #3
  call void @llvm.lifetime.end.p0(i64 328, ptr %5) #3
  br label %128

128:                                              ; preds = %127
  %129 = load ptr, ptr %6, align 8
  %130 = load i32, ptr %7, align 4
  %131 = insertvalue { ptr, i32 } poison, ptr %129, 0
  %132 = insertvalue { ptr, i32 } %131, i32 %130, 1
  resume { ptr, i32 } %132
}