; Function Attrs: mustprogress uwtable
define hidden void @_ZN2cv8ximgproc15EdgeDrawingImpl15ComputeGradientEv(ptr noundef nonnull align 8 dereferenceable(976) %0) local_unnamed_addr #3 align 2 personality ptr @__gxx_personality_v0 {
  %2 = alloca %"struct.cv::ximgproc::ComputeGradientBody", align 8
  %3 = alloca %"class.cv::Range", align 4
  %4 = getelementptr inbounds nuw i8, ptr %0, i64 72
  %5 = load i32, ptr %4, align 8, !tbaa !182
  %6 = icmp sgt i32 %5, 0
  br i1 %6, label %.lr.ph, label %..preheader_crit_edge

..preheader_crit_edge:                            ; preds = %1
  %.phi.trans.insert = getelementptr inbounds nuw i8, ptr %0, i64 76
  %.pre = load i32, ptr %.phi.trans.insert, align 4, !tbaa !180
  %.pre24 = add i32 %.pre, -1
  br label %.preheader

.lr.ph:                                           ; preds = %1
  %7 = getelementptr inbounds nuw i8, ptr %0, i64 740
  %8 = load i32, ptr %7, align 4, !tbaa !162
  %9 = trunc i32 %8 to i16
  %10 = add i16 %9, -1
  %11 = getelementptr inbounds nuw i8, ptr %0, i64 728
  %12 = load ptr, ptr %11, align 8, !tbaa !190
  %13 = getelementptr inbounds nuw i8, ptr %0, i64 76
  %14 = load i32, ptr %13, align 4, !tbaa !180
  %15 = add i32 %14, -1
  %16 = mul nsw i32 %15, %5
  %17 = sext i32 %16 to i64
  %wide.trip.count = zext nneg i32 %5 to i64
  %invariant.gep25 = getelementptr i16, ptr %12, i64 %17
  br label %27

.preheader:                                       ; preds = %27, %..preheader_crit_edge
  %.pre-phi = phi i32 [ %.pre24, %..preheader_crit_edge ], [ %15, %27 ]
  %18 = phi i32 [ %.pre, %..preheader_crit_edge ], [ %14, %27 ]
  %19 = icmp sgt i32 %18, 2
  br i1 %19, label %.lr.ph17, label %._crit_edge

.lr.ph17:                                         ; preds = %.preheader
  %20 = getelementptr inbounds nuw i8, ptr %0, i64 740
  %21 = load i32, ptr %20, align 4, !tbaa !162
  %22 = trunc i32 %21 to i16
  %23 = add i16 %22, -1
  %24 = getelementptr inbounds nuw i8, ptr %0, i64 728
  %25 = load ptr, ptr %24, align 8, !tbaa !190
  %invariant.gep = getelementptr i8, ptr %25, i64 -2
  %26 = sext i32 %5 to i64
  %wide.trip.count22 = zext i32 %.pre-phi to i64
  br label %41

27:                                               ; preds = %.lr.ph, %27
  %indvars.iv = phi i64 [ 0, %.lr.ph ], [ %indvars.iv.next, %27 ]
  %gep26 = getelementptr i16, ptr %invariant.gep25, i64 %indvars.iv
  store i16 %10, ptr %gep26, align 2, !tbaa !63
  %28 = getelementptr inbounds nuw i16, ptr %12, i64 %indvars.iv
  store i16 %10, ptr %28, align 2, !tbaa !63
  %indvars.iv.next = add nuw nsw i64 %indvars.iv, 1
  %exitcond.not = icmp eq i64 %indvars.iv.next, %wide.trip.count
  br i1 %exitcond.not, label %.preheader, label %27, !llvm.loop !202

._crit_edge:                                      ; preds = %41, %.preheader
  call void @llvm.lifetime.start.p0(i64 328, ptr nonnull %2) #41
  store ptr getelementptr inbounds nuw inrange(-16, 24) (i8, ptr @_ZTVN2cv8ximgproc19ComputeGradientBodyE, i64 16), ptr %2, align 8, !tbaa !78
  %29 = getelementptr inbounds nuw i8, ptr %2, i64 8
  call void @_ZN2cv3MatC2Ev(ptr noundef nonnull align 8 dereferenceable(96) %29) #41
  %30 = load i32, ptr %29, align 8, !tbaa !203
  %31 = and i32 %30, -4096
  store i32 %31, ptr %29, align 8, !tbaa !203
  %32 = getelementptr inbounds nuw i8, ptr %2, i64 104
  call void @_ZN2cv3MatC2Ev(ptr noundef nonnull align 8 dereferenceable(96) %32) #41
  %33 = load i32, ptr %32, align 8, !tbaa !203
  %34 = and i32 %33, -4096
  %35 = or disjoint i32 %34, 2
  store i32 %35, ptr %32, align 8, !tbaa !203
  %36 = getelementptr inbounds nuw i8, ptr %2, i64 200
  call void @_ZN2cv3MatC2Ev(ptr noundef nonnull align 8 dereferenceable(96) %36) #41
  %37 = load i32, ptr %36, align 8, !tbaa !203
  %38 = and i32 %37, -4096
  store i32 %38, ptr %36, align 8, !tbaa !203
  %39 = getelementptr inbounds nuw i8, ptr %0, i64 136
  %40 = invoke noundef nonnull align 8 dereferenceable(96) ptr @_ZN2cv4Mat_IhEaSERKNS_3MatE(ptr noundef nonnull align 8 dereferenceable(96) %29, ptr noundef nonnull align 8 dereferenceable(96) %39)
          to label %45 unwind label %72

41:                                               ; preds = %.lr.ph17, %41
  %indvars.iv19 = phi i64 [ 1, %.lr.ph17 ], [ %indvars.iv.next20, %41 ]
  %indvars.iv.next20 = add nuw nsw i64 %indvars.iv19, 1
  %42 = mul nsw i64 %indvars.iv.next20, %26
  %gep = getelementptr i16, ptr %invariant.gep, i64 %42
  store i16 %23, ptr %gep, align 2, !tbaa !63
  %43 = mul nsw i64 %indvars.iv19, %26
  %44 = getelementptr inbounds i16, ptr %25, i64 %43
  store i16 %23, ptr %44, align 2, !tbaa !63
  %exitcond23.not = icmp eq i64 %indvars.iv.next20, %wide.trip.count22
  br i1 %exitcond23.not, label %._crit_edge, label %41, !llvm.loop !204

45:                                               ; preds = %._crit_edge
  %46 = getelementptr inbounds nuw i8, ptr %0, i64 528
  %47 = invoke noundef nonnull align 8 dereferenceable(96) ptr @_ZN2cv4Mat_ItEaSERKNS_3MatE(ptr noundef nonnull align 8 dereferenceable(96) %32, ptr noundef nonnull align 8 dereferenceable(96) %46)
          to label %48 unwind label %72

48:                                               ; preds = %45
  %49 = getelementptr inbounds nuw i8, ptr %0, i64 624
  %50 = invoke noundef nonnull align 8 dereferenceable(96) ptr @_ZN2cv4Mat_IhEaSERKNS_3MatE(ptr noundef nonnull align 8 dereferenceable(96) %36, ptr noundef nonnull align 8 dereferenceable(96) %49)
          to label %51 unwind label %72

51:                                               ; preds = %48
  %52 = getelementptr inbounds nuw i8, ptr %0, i64 740
  %53 = load i32, ptr %52, align 4, !tbaa !162
  %54 = getelementptr inbounds nuw i8, ptr %2, i64 296
  store i32 %53, ptr %54, align 8, !tbaa !67
  %55 = getelementptr inbounds nuw i8, ptr %0, i64 8
  %56 = getelementptr inbounds nuw i8, ptr %0, i64 36
  %57 = load i8, ptr %56, align 4, !tbaa !205, !range !61, !noundef !62
  %58 = getelementptr inbounds nuw i8, ptr %2, i64 304
  store i8 %57, ptr %58, align 8, !tbaa !60
  %59 = getelementptr inbounds nuw i8, ptr %0, i64 736
  %60 = load i32, ptr %59, align 8, !tbaa !206
  %61 = getelementptr inbounds nuw i8, ptr %2, i64 300
  store i32 %60, ptr %61, align 4, !tbaa !54
  %62 = getelementptr inbounds nuw i8, ptr %0, i64 368
  %63 = load ptr, ptr %62, align 8, !tbaa !152
  %64 = getelementptr inbounds nuw i8, ptr %2, i64 312
  store ptr %63, ptr %64, align 8, !tbaa !66
  %65 = load i8, ptr %55, align 8, !tbaa !195, !range !61, !noundef !62
  %66 = getelementptr inbounds nuw i8, ptr %2, i64 320
  store i8 %65, ptr %66, align 8, !tbaa !65
  call void @llvm.lifetime.start.p0(i64 8, ptr nonnull %3) #41
  %67 = getelementptr inbounds nuw i8, ptr %0, i64 144
  %68 = load i32, ptr %67, align 8, !tbaa !207
  %69 = add nsw i32 %68, -1
  store i32 1, ptr %3, align 4, !tbaa !47
  %70 = getelementptr inbounds nuw i8, ptr %3, i64 4
  store i32 %69, ptr %70, align 4, !tbaa !49
  invoke void @_ZN2cv13parallel_for_ERKNS_5RangeERKNS_16ParallelLoopBodyEd(ptr noundef nonnull align 4 dereferenceable(8) %3, ptr noundef nonnull align 8 dereferenceable(8) %2, double noundef -1.000000e+00)
          to label %71 unwind label %74

71:                                               ; preds = %51
  call void @llvm.lifetime.end.p0(i64 8, ptr nonnull %3) #41
  store ptr getelementptr inbounds nuw inrange(-16, 24) (i8, ptr @_ZTVN2cv8ximgproc19ComputeGradientBodyE, i64 16), ptr %2, align 8, !tbaa !78
  call void @_ZN2cv3MatD2Ev(ptr noundef nonnull align 8 dereferenceable(96) %36) #41
  call void @_ZN2cv3MatD2Ev(ptr noundef nonnull align 8 dereferenceable(96) %32) #41
  call void @_ZN2cv3MatD2Ev(ptr noundef nonnull align 8 dereferenceable(96) %29) #41
  call void @_ZN2cv16ParallelLoopBodyD2Ev(ptr noundef nonnull align 8 dereferenceable(321) %2) #41
  call void @llvm.lifetime.end.p0(i64 328, ptr nonnull %2) #41
  ret void

72:                                               ; preds = %48, %45, %._crit_edge
  %73 = landingpad { ptr, i32 }
          cleanup
  br label %76

74:                                               ; preds = %51
  %75 = landingpad { ptr, i32 }
          cleanup
  call void @llvm.lifetime.end.p0(i64 8, ptr nonnull %3) #41
  br label %76

76:                                               ; preds = %74, %72
  %.pn = phi { ptr, i32 } [ %75, %74 ], [ %73, %72 ]
  call void @_ZN2cv8ximgproc19ComputeGradientBodyD2Ev(ptr noundef nonnull align 8 dereferenceable(321) %2) #41
  call void @llvm.lifetime.end.p0(i64 328, ptr nonnull %2) #41
  resume { ptr, i32 } %.pn
}